target datalayout = "e-m:e-p270:32:32-p271:32:32-p272:64:64-i64:64-i128:128-f80:128-n8:16:32:64-S128"
target triple = "x86_64-unknown-linux-gnu"

%"class.node::quic::QuicError" = type { %"class.node::MemoryRetainer", %"class.std::__cxx11::basic_string", %struct.ngtcp2_connection_close_error, ptr }
%"class.node::MemoryRetainer" = type { ptr }
%"class.std::__cxx11::basic_string" = type { %"struct.std::__cxx11::basic_string<char>::_Alloc_hider", i64, %union.anon.98 }
%"struct.std::__cxx11::basic_string<char>::_Alloc_hider" = type { ptr }
%union.anon.98 = type { i64, [8 x i8] }
%struct.ngtcp2_connection_close_error = type { i32, i64, i64, ptr, i64 }

; Function Attrs: mustprogress nounwind uwtable
define dso_local noundef i64 @_ZNK4node4quic9QuicError10frame_typeEv(ptr noundef nonnull align 8 dereferenceable(88) %this) #4 align 2 {
entry:
  %this.addr = alloca ptr, align 8
  store ptr %this, ptr %this.addr, align 8
  %this1 = load ptr, ptr %this.addr, align 8
  %ptr_ = getelementptr inbounds %"class.node::quic::QuicError", ptr %this1, i32 0, i32 3
  %0 = load ptr, ptr %ptr_, align 8
  %frame_type = getelementptr inbounds %struct.ngtcp2_connection_close_error, ptr %0, i32 0, i32 2
  %1 = load i64, ptr %frame_type, align 8
  ret i64 %1
}

; Function Attrs: mustprogress nounwind uwtable
define dso_local noundef i64 @_ZNK4node4quic9QuicError4codeEv(ptr noundef nonnull align 8 dereferenceable(88) %this) #4 align 2 {
entry:
  %this.addr = alloca ptr, align 8
  store ptr %this, ptr %this.addr, align 8
  %this1 = load ptr, ptr %this.addr, align 8
  %ptr_ = getelementptr inbounds %"class.node::quic::QuicError", ptr %this1, i32 0, i32 3
  %0 = load ptr, ptr %ptr_, align 8
  %error_code = getelementptr inbounds %struct.ngtcp2_connection_close_error, ptr %0, i32 0, i32 1
  %1 = load i64, ptr %error_code, align 8
  ret i64 %1
}

; Function Attrs: mustprogress nounwind uwtable
define dso_local noundef i32 @_ZNK4node4quic9QuicError4typeEv(ptr noundef nonnull align 8 dereferenceable(88) %this) #4 align 2 {
entry:
  %this.addr = alloca ptr, align 8
  store ptr %this, ptr %this.addr, align 8
  %this1 = load ptr, ptr %this.addr, align 8
  %ptr_ = getelementptr inbounds %"class.node::quic::QuicError", ptr %this1, i32 0, i32 3
  %0 = load ptr, ptr %ptr_, align 8
  %type = getelementptr inbounds %struct.ngtcp2_connection_close_error, ptr %0, i32 0, i32 0
  %1 = load i32, ptr %type, align 8
  ret i32 %1
}

; Function Attrs: mustprogress nounwind uwtable
define dso_local noundef zeroext i1 @_ZNK4node4quic9QuicErroreqERKS1_(ptr noundef nonnull align 8 dereferenceable(88) %this, ptr noundef nonnull align 8 dereferenceable(88) %other) #4 align 2 {
entry:
  %retval = alloca i1, align 1
  %this.addr = alloca ptr, align 8
  %other.addr = alloca ptr, align 8
  store ptr %this, ptr %this.addr, align 8
  store ptr %other, ptr %other.addr, align 8
  %this1 = load ptr, ptr %this.addr, align 8
  %0 = load ptr, ptr %other.addr, align 8
  %cmp = icmp eq ptr %this1, %0
  br i1 %cmp, label %if.then, label %if.end

if.then:                                          ; preds = %entry
  store i1 true, ptr %retval, align 1
  br label %return

if.end:                                           ; preds = %entry
  %call = call noundef i32 @_ZNK4node4quic9QuicError4typeEv(ptr noundef nonnull align 8 dereferenceable(88) %this1)
  %1 = load ptr, ptr %other.addr, align 8
  %call2 = call noundef i32 @_ZNK4node4quic9QuicError4typeEv(ptr noundef nonnull align 8 dereferenceable(88) %1)
  %cmp3 = icmp eq i32 %call, %call2
  br i1 %cmp3, label %land.lhs.true, label %land.end

land.lhs.true:                                    ; preds = %if.end
  %call4 = call noundef i64 @_ZNK4node4quic9QuicError4codeEv(ptr noundef nonnull align 8 dereferenceable(88) %this1)
  %2 = load ptr, ptr %other.addr, align 8
  %call5 = call noundef i64 @_ZNK4node4quic9QuicError4codeEv(ptr noundef nonnull align 8 dereferenceable(88) %2)
  %cmp6 = icmp eq i64 %call4, %call5
  br i1 %cmp6, label %land.rhs, label %land.end

land.rhs:                                         ; preds = %land.lhs.true
  %call7 = call noundef i64 @_ZNK4node4quic9QuicError10frame_typeEv(ptr noundef nonnull align 8 dereferenceable(88) %this1)
  %3 = load ptr, ptr %other.addr, align 8
  %call8 = call noundef i64 @_ZNK4node4quic9QuicError10frame_typeEv(ptr noundef nonnull align 8 dereferenceable(88) %3)
  %cmp9 = icmp eq i64 %call7, %call8
  br label %land.end

land.end:                                         ; preds = %land.rhs, %land.lhs.true, %if.end
  %4 = phi i1 [ false, %land.lhs.true ], [ false, %if.end ], [ %cmp9, %land.rhs ]
  store i1 %4, ptr %retval, align 1
  br label %return

return:                                           ; preds = %land.end, %if.then
  %5 = load i1, ptr %retval, align 1
  ret i1 %5
}

; Function Attrs: mustprogress nounwind uwtable
define dso_local noundef zeroext i1 @_ZNK4node4quic9QuicErrorneERKS1_(ptr noundef nonnull align 8 dereferenceable(88) %this, ptr noundef nonnull align 8 dereferenceable(88) %other) #4 align 2 {
entry:
  %this.addr = alloca ptr, align 8
  %other.addr = alloca ptr, align 8
  store ptr %this, ptr %this.addr, align 8
  store ptr %other, ptr %other.addr, align 8
  %this1 = load ptr, ptr %this.addr, align 8
  %0 = load ptr, ptr %other.addr, align 8
  %call = call noundef zeroext i1 @_ZNK4node4quic9QuicErroreqERKS1_(ptr noundef nonnull align 8 dereferenceable(88) %this1, ptr noundef nonnull align 8 dereferenceable(88) %0)
  %lnot = xor i1 %call, true
  ret i1 %lnot
}