; Function Attrs: mustprogress nofree norecurse nosync nounwind willreturn memory(read, inaccessiblemem: none) uwtable
define dso_local noundef zeroext i1 @_ZNK4node4quic9QuicErrorneERKS1_(ptr noundef nonnull readonly align 8 dereferenceable(88) %this, ptr noundef nonnull readonly align 8 dereferenceable(88) %other) local_unnamed_addr #9 align 2 {
entry:
  %cmp.i = icmp eq ptr %this, %other
  br i1 %cmp.i, label %_ZNK4node4quic9QuicErroreqERKS1_.exit, label %if.end.i

if.end.i:                                         ; preds = %entry
  %ptr_.i.i = getelementptr inbounds i8, ptr %this, i64 80
  %0 = load ptr, ptr %ptr_.i.i, align 8
  %1 = load i32, ptr %0, align 8
  %ptr_.i4.i = getelementptr inbounds i8, ptr %other, i64 80
  %2 = load ptr, ptr %ptr_.i4.i, align 8
  %3 = load i32, ptr %2, align 8
  %cmp3.i = icmp eq i32 %1, %3
  br i1 %cmp3.i, label %land.lhs.true.i, label %_ZNK4node4quic9QuicErroreqERKS1_.exit

land.lhs.true.i:                                  ; preds = %if.end.i
  %error_code.i.i = getelementptr inbounds i8, ptr %0, i64 8
  %4 = load i64, ptr %error_code.i.i, align 8
  %error_code.i7.i = getelementptr inbounds i8, ptr %2, i64 8
  %5 = load i64, ptr %error_code.i7.i, align 8
  %cmp6.i = icmp eq i64 %4, %5
  br i1 %cmp6.i, label %land.rhs.i, label %_ZNK4node4quic9QuicErroreqERKS1_.exit

land.rhs.i:                                       ; preds = %land.lhs.true.i
  %frame_type.i.i = getelementptr inbounds i8, ptr %0, i64 16
  %6 = load i64, ptr %frame_type.i.i, align 8
  %frame_type.i10.i = getelementptr inbounds i8, ptr %2, i64 16
  %7 = load i64, ptr %frame_type.i10.i, align 8
  %cmp9.i = icmp ne i64 %6, %7
  br label %_ZNK4node4quic9QuicErroreqERKS1_.exit

_ZNK4node4quic9QuicErroreqERKS1_.exit:            ; preds = %entry, %if.end.i, %land.lhs.true.i, %land.rhs.i
  %retval.0.i = phi i1 [ false, %entry ], [ true, %land.lhs.true.i ], [ true, %if.end.i ], [ %cmp9.i, %land.rhs.i ]
  ret i1 %retval.0.i
}